; Function Attrs: nounwind uwtable
define dso_local void @ssubscribeCommand(ptr noundef %0) local_unnamed_addr #2 {
  %2 = getelementptr inbounds nuw i8, ptr %0, i64 8
  %3 = load i64, ptr %2, align 8, !tbaa !31
  %4 = and i64 %3, 2199023255552
  %.not = icmp eq i64 %4, 0
  br i1 %.not, label %.preheader, label %9

.preheader:                                       ; preds = %1
  %5 = getelementptr inbounds nuw i8, ptr %0, i64 88
  %6 = load i32, ptr %5, align 8, !tbaa !95
  %7 = icmp sgt i32 %6, 1
  br i1 %7, label %.lr.ph, label %._crit_edge

.lr.ph:                                           ; preds = %.preheader
  %8 = getelementptr inbounds nuw i8, ptr %0, i64 96
  br label %16

9:                                                ; preds = %1
  tail call void @addReplyError(ptr noundef nonnull %0, ptr noundef nonnull @.str.25) #9
  br label %markClientAsPubSub.exit

._crit_edge.loopexit:                             ; preds = %16
  %.pre = load i64, ptr %2, align 8, !tbaa !31
  br label %._crit_edge

._crit_edge:                                      ; preds = %._crit_edge.loopexit, %.preheader
  %10 = phi i64 [ %.pre, %._crit_edge.loopexit ], [ %3, %.preheader ]
  %11 = and i64 %10, 262144
  %.not.i = icmp eq i64 %11, 0
  br i1 %.not.i, label %12, label %markClientAsPubSub.exit

12:                                               ; preds = %._crit_edge
  %13 = or disjoint i64 %10, 262144
  store i64 %13, ptr %2, align 8, !tbaa !31
  %14 = load i32, ptr getelementptr inbounds nuw (i8, ptr @server, i64 7880), align 8, !tbaa !66
  %15 = add i32 %14, 1
  store i32 %15, ptr getelementptr inbounds nuw (i8, ptr @server, i64 7880), align 8, !tbaa !66
  br label %markClientAsPubSub.exit

16:                                               ; preds = %.lr.ph, %16
  %indvars.iv = phi i64 [ 1, %.lr.ph ], [ %indvars.iv.next, %16 ]
  %17 = load ptr, ptr %8, align 8, !tbaa !96
  %18 = getelementptr inbounds nuw ptr, ptr %17, i64 %indvars.iv
  %19 = load ptr, ptr %18, align 8, !tbaa !33
  %20 = tail call i32 @pubsubSubscribeChannel(ptr noundef nonnull %0, ptr noundef %19, ptr noundef nonnull byval(%struct.pubsubtype) align 8 @pubSubShardType)
  %indvars.iv.next = add nuw nsw i64 %indvars.iv, 1
  %21 = load i32, ptr %5, align 8, !tbaa !95
  %22 = sext i32 %21 to i64
  %23 = icmp slt i64 %indvars.iv.next, %22
  br i1 %23, label %16, label %._crit_edge.loopexit, !llvm.loop !106

markClientAsPubSub.exit:                          ; preds = %12, %._crit_edge, %9
  ret void
}